; Function Attrs: nofree norecurse nosync nounwind memory(argmem: readwrite) uwtable
define internal void @VE16_C(ptr noundef captures(none) %0) #3 {
  %2 = getelementptr inbounds i8, ptr %0, i64 -32
  br label %3

3:                                                ; preds = %1, %3
  %indvars.iv = phi i64 [ 0, %1 ], [ %indvars.iv.next, %3 ]
  %4 = shl nuw nsw i64 %indvars.iv, 5
  %5 = getelementptr inbounds nuw i8, ptr %0, i64 %4
  tail call void @llvm.memcpy.p0.p0.i64(ptr noundef nonnull align 1 dereferenceable(16) %5, ptr noundef nonnull align 1 dereferenceable(16) %2, i64 16, i1 false)
  %indvars.iv.next = add nuw nsw i64 %indvars.iv, 1
  %exitcond.not = icmp eq i64 %indvars.iv.next, 16
  br i1 %exitcond.not, label %6, label %3, !llvm.loop !32

6:                                                ; preds = %3
  ret void
}